target datalayout = "e-m:e-p270:32:32-p271:32:32-p272:64:64-i64:64-i128:128-f80:128-n8:16:32:64-S128"
target triple = "x86_64-pc-linux-gnu"

%"class.cvc5::internal::theory::quantifiers::SygusEnumeratorCallback" = type { %"class.cvc5::internal::SygusTermEnumeratorCallback", %"class.cvc5::internal::EnvObj", ptr, ptr, ptr }
%"class.cvc5::internal::SygusTermEnumeratorCallback" = type { ptr }
%"class.cvc5::internal::EnvObj" = type { ptr, ptr }

; Function Attrs: mustprogress nounwind uwtable
define linkonce_odr hidden void @_ZN4cvc58internal27SygusTermEnumeratorCallbackD2Ev(ptr noundef nonnull align 8 dereferenceable(8) %0) unnamed_addr #5 comdat align 2 {
  %2 = alloca ptr, align 8
  store ptr %0, ptr %2, align 8, !tbaa !24
  ret void
}

; Function Attrs: mustprogress nounwind uwtable
define linkonce_odr hidden void @_ZN4cvc58internal27SygusTermEnumeratorCallbackC2Ev(ptr noundef nonnull align 8 dereferenceable(8) %0) unnamed_addr #5 comdat align 2 {
  %2 = alloca ptr, align 8
  store ptr %0, ptr %2, align 8, !tbaa !24
  %3 = load ptr, ptr %2, align 8
  store ptr getelementptr inbounds inrange(-16, 24) ({ [5 x ptr] }, ptr @_ZTVN4cvc58internal27SygusTermEnumeratorCallbackE, i32 0, i32 0, i32 2), ptr %3, align 8, !tbaa !16
  ret void
}

; Function Attrs: mustprogress uwtable
define hidden void @_ZN4cvc58internal6theory11quantifiers23SygusEnumeratorCallbackC2ERNS0_3EnvEPNS2_11TermDbSygusEPNS2_15SygusStatisticsEPNS2_16ExampleEvalCacheE(ptr noundef nonnull align 8 dereferenceable(48) %0, ptr noundef nonnull align 8 dereferenceable(696) %1, ptr noundef %2, ptr noundef %3, ptr noundef %4) unnamed_addr #4 align 2 personality ptr @__gxx_personality_v0 {
  %6 = alloca ptr, align 8
  %7 = alloca ptr, align 8
  %8 = alloca ptr, align 8
  %9 = alloca ptr, align 8
  %10 = alloca ptr, align 8
  %11 = alloca ptr, align 8
  %12 = alloca i32, align 4
  store ptr %0, ptr %6, align 8, !tbaa !3
  store ptr %1, ptr %7, align 8, !tbaa !8
  store ptr %2, ptr %8, align 8, !tbaa !10
  store ptr %3, ptr %9, align 8, !tbaa !12
  store ptr %4, ptr %10, align 8, !tbaa !14
  %13 = load ptr, ptr %6, align 8
  call void @_ZN4cvc58internal27SygusTermEnumeratorCallbackC2Ev(ptr noundef nonnull align 8 dereferenceable(8) %13)
  %14 = getelementptr inbounds i8, ptr %13, i64 8
  %15 = load ptr, ptr %7, align 8, !tbaa !8
  invoke void @_ZN4cvc58internal6EnvObjC2ERNS0_3EnvE(ptr noundef nonnull align 8 dereferenceable(16) %14, ptr noundef nonnull align 8 dereferenceable(696) %15)
          to label %16 unwind label %24

16:                                               ; preds = %5
  store ptr getelementptr inbounds inrange(-16, 32) ({ [6 x ptr], [4 x ptr] }, ptr @_ZTVN4cvc58internal6theory11quantifiers23SygusEnumeratorCallbackE, i32 0, i32 0, i32 2), ptr %13, align 8, !tbaa !16
  %17 = getelementptr inbounds i8, ptr %13, i64 8
  store ptr getelementptr inbounds inrange(-16, 16) ({ [6 x ptr], [4 x ptr] }, ptr @_ZTVN4cvc58internal6theory11quantifiers23SygusEnumeratorCallbackE, i32 0, i32 1, i32 2), ptr %17, align 8, !tbaa !16
  %18 = getelementptr inbounds nuw %"class.cvc5::internal::theory::quantifiers::SygusEnumeratorCallback", ptr %13, i32 0, i32 2
  %19 = load ptr, ptr %8, align 8, !tbaa !10
  store ptr %19, ptr %18, align 8, !tbaa !18
  %20 = getelementptr inbounds nuw %"class.cvc5::internal::theory::quantifiers::SygusEnumeratorCallback", ptr %13, i32 0, i32 3
  %21 = load ptr, ptr %9, align 8, !tbaa !12
  store ptr %21, ptr %20, align 8, !tbaa !22
  %22 = getelementptr inbounds nuw %"class.cvc5::internal::theory::quantifiers::SygusEnumeratorCallback", ptr %13, i32 0, i32 4
  %23 = load ptr, ptr %10, align 8, !tbaa !14
  store ptr %23, ptr %22, align 8, !tbaa !23
  ret void

24:                                               ; preds = %5
  %25 = landingpad { ptr, i32 }
          cleanup
  %26 = extractvalue { ptr, i32 } %25, 0
  store ptr %26, ptr %11, align 8
  %27 = extractvalue { ptr, i32 } %25, 1
  store i32 %27, ptr %12, align 4
  call void @_ZN4cvc58internal27SygusTermEnumeratorCallbackD2Ev(ptr noundef nonnull align 8 dereferenceable(8) %13) #3
  br label %28

28:                                               ; preds = %24
  %29 = load ptr, ptr %11, align 8
  %30 = load i32, ptr %12, align 4
  %31 = insertvalue { ptr, i32 } poison, ptr %29, 0
  %32 = insertvalue { ptr, i32 } %31, i32 %30, 1
  resume { ptr, i32 } %32
}