; Function Attrs: mustprogress uwtable
define hidden void @_ZN4cvc58internal6theory11quantifiers23SygusEnumeratorCallbackC2ERNS0_3EnvEPNS2_11TermDbSygusEPNS2_15SygusStatisticsEPNS2_16ExampleEvalCacheE(ptr noundef nonnull align 8 dereferenceable(48) initializes((0, 8)) %0, ptr noundef nonnull align 8 dereferenceable(696) %1, ptr noundef %2, ptr noundef %3, ptr noundef %4) unnamed_addr #3 align 2 personality ptr @__gxx_personality_v0 {
  store ptr getelementptr inbounds nuw inrange(-16, 24) (i8, ptr @_ZTVN4cvc58internal27SygusTermEnumeratorCallbackE, i64 16), ptr %0, align 8, !tbaa !3
  %6 = getelementptr inbounds nuw i8, ptr %0, i64 8
  tail call void @_ZN4cvc58internal6EnvObjC2ERNS0_3EnvE(ptr noundef nonnull align 8 dereferenceable(16) %6, ptr noundef nonnull align 8 dereferenceable(696) %1)
  store ptr getelementptr inbounds nuw inrange(-16, 32) (i8, ptr @_ZTVN4cvc58internal6theory11quantifiers23SygusEnumeratorCallbackE, i64 16), ptr %0, align 8, !tbaa !3
  store ptr getelementptr inbounds nuw inrange(-16, 16) (i8, ptr @_ZTVN4cvc58internal6theory11quantifiers23SygusEnumeratorCallbackE, i64 64), ptr %6, align 8, !tbaa !3
  %7 = getelementptr inbounds nuw i8, ptr %0, i64 24
  store ptr %2, ptr %7, align 8, !tbaa !6
  %8 = getelementptr inbounds nuw i8, ptr %0, i64 32
  store ptr %3, ptr %8, align 8, !tbaa !16
  %9 = getelementptr inbounds nuw i8, ptr %0, i64 40
  store ptr %4, ptr %9, align 8, !tbaa !17
  ret void
}